; Function Attrs: mustprogress uwtable
define hidden void @_ZN17opencv_tensorflow20TensorShapeProto_Dim9MergeImplEPN6google8protobuf7MessageERKS3_(ptr noundef %0, ptr noundef nonnull readonly align 8 captures(none) dereferenceable(16) %1) #3 align 2 personality ptr @__gxx_personality_v0 {
  %3 = getelementptr inbounds nuw i8, ptr %1, i64 16
  %4 = load ptr, ptr %3, align 8, !tbaa !13
  %5 = ptrtoint ptr %4 to i64
  %6 = and i64 %5, -2
  %7 = inttoptr i64 %6 to ptr
  %8 = getelementptr inbounds nuw i8, ptr %7, i64 8
  %9 = load i64, ptr %8, align 8, !tbaa !27
  %10 = icmp eq i64 %9, 0
  br i1 %10, label %20, label %11

11:                                               ; preds = %2
  %12 = getelementptr inbounds nuw i8, ptr %0, i64 16
  %13 = getelementptr inbounds nuw i8, ptr %0, i64 8
  %14 = load i64, ptr %13, align 8, !tbaa !3
  %15 = and i64 %14, 1
  %.not.i.i = icmp eq i64 %15, 0
  %16 = and i64 %14, -4
  %17 = inttoptr i64 %16 to ptr
  br i1 %.not.i.i, label %_ZNK6google8protobuf11MessageLite21GetArenaForAllocationEv.exit.i, label %18, !prof !23

18:                                               ; preds = %11
  %19 = load ptr, ptr %17, align 8, !tbaa !24
  br label %_ZNK6google8protobuf11MessageLite21GetArenaForAllocationEv.exit.i

_ZNK6google8protobuf11MessageLite21GetArenaForAllocationEv.exit.i: ; preds = %18, %11
  %.0.i.i.i = phi ptr [ %19, %18 ], [ %17, %11 ]
  tail call void @_ZN6google8protobuf8internal14ArenaStringPtr3SetENS2_12EmptyDefaultERKNSt7__cxx1112basic_stringIcSt11char_traitsIcESaIcEEEPNS0_5ArenaE(ptr noundef nonnull align 8 dereferenceable(8) %12, ptr noundef nonnull align 8 dereferenceable(32) %7, ptr noundef %.0.i.i.i)
  br label %20

20:                                               ; preds = %_ZNK6google8protobuf11MessageLite21GetArenaForAllocationEv.exit.i, %2
  %21 = getelementptr inbounds nuw i8, ptr %1, i64 24
  %22 = load i64, ptr %21, align 8, !tbaa !16
  %.not.i = icmp eq i64 %22, 0
  br i1 %.not.i, label %25, label %23

23:                                               ; preds = %20
  %24 = getelementptr inbounds nuw i8, ptr %0, i64 24
  store i64 %22, ptr %24, align 8, !tbaa !16
  br label %25

25:                                               ; preds = %23, %20
  %26 = getelementptr inbounds nuw i8, ptr %1, i64 8
  %27 = load i64, ptr %26, align 8, !tbaa !3
  %28 = and i64 %27, 1
  %.not6.i = icmp eq i64 %28, 0
  br i1 %.not6.i, label %_ZN17opencv_tensorflow20TensorShapeProto_Dim9MergeFromERKS0_.exit, label %_ZNK6google8protobuf8internal16InternalMetadata14unknown_fieldsINS0_15UnknownFieldSetEEERKT_PFS7_vE.exit.i

_ZNK6google8protobuf8internal16InternalMetadata14unknown_fieldsINS0_15UnknownFieldSetEEERKT_PFS7_vE.exit.i: ; preds = %25
  %29 = getelementptr inbounds nuw i8, ptr %0, i64 8
  %30 = and i64 %27, -4
  %31 = inttoptr i64 %30 to ptr
  %32 = getelementptr inbounds nuw i8, ptr %31, i64 8
  tail call void @_ZN6google8protobuf8internal16InternalMetadata11DoMergeFromINS0_15UnknownFieldSetEEEvRKT_(ptr noundef nonnull align 8 dereferenceable(8) %29, ptr noundef nonnull align 8 dereferenceable(24) %32)
  br label %_ZN17opencv_tensorflow20TensorShapeProto_Dim9MergeFromERKS0_.exit

_ZN17opencv_tensorflow20TensorShapeProto_Dim9MergeFromERKS0_.exit: ; preds = %25, %_ZNK6google8protobuf8internal16InternalMetadata14unknown_fieldsINS0_15UnknownFieldSetEEERKT_PFS7_vE.exit.i
  ret void
}